target datalayout = "e-m:e-p270:32:32-p271:32:32-p272:64:64-i64:64-i128:128-f80:128-n8:16:32:64-S128"
target triple = "x86_64-pc-linux-gnu"

%struct.Npn_Obj_t_ = type { i64, i32, i32 }

@.str.1 = private unnamed_addr constant [2 x i8] c"r\00", align 1
@.str.2 = private unnamed_addr constant [37 x i8] c"Cannot open NPN function file \22%s\22.\0A\00", align 1
@.str.3 = private unnamed_addr constant [4 x i8] c" \09\0A\00", align 1
@.str.4 = private unnamed_addr constant [66 x i8] c"Skipping token %s that does not look like a 16-digit hex number.\0A\00", align 1

; Function Attrs: nounwind uwtable
define void @Npn_ManRead(ptr noundef %0, ptr noundef %1) #0 {
  %3 = alloca ptr, align 8
  %4 = alloca ptr, align 8
  %5 = alloca [1000 x i8], align 16
  %6 = alloca ptr, align 8
  %7 = alloca ptr, align 8
  %8 = alloca [2 x i32], align 4
  %9 = alloca i64, align 8
  %10 = alloca ptr, align 8
  store ptr %0, ptr %3, align 8
  store ptr %1, ptr %4, align 8
  %11 = load ptr, ptr %4, align 8
  %12 = call noalias ptr @fopen(ptr noundef %11, ptr noundef @.str.1)
  store ptr %12, ptr %10, align 8
  %13 = load ptr, ptr %10, align 8
  %14 = icmp eq ptr %13, null
  br i1 %14, label %15, label %17

15:                                               ; preds = %2
  %16 = load ptr, ptr %4, align 8
  call void (i32, ptr, ...) @Abc_Print(i32 noundef -1, ptr noundef @.str.2, ptr noundef %16)
  br label %64

17:                                               ; preds = %2
  br label %18

18:                                               ; preds = %41, %40, %35, %28, %17
  %19 = getelementptr inbounds [1000 x i8], ptr %5, i64 0, i64 0
  %20 = load ptr, ptr %10, align 8
  %21 = call ptr @fgets(ptr noundef %19, i32 noundef 1000, ptr noundef %20)
  %22 = icmp ne ptr %21, null
  br i1 %22, label %23, label %61

23:                                               ; preds = %18
  %24 = getelementptr inbounds [1000 x i8], ptr %5, i64 0, i64 0
  %25 = call ptr @strtok(ptr noundef %24, ptr noundef @.str.3) #8
  store ptr %25, ptr %6, align 8
  %26 = load ptr, ptr %6, align 8
  %27 = icmp eq ptr %26, null
  br i1 %27, label %28, label %29

28:                                               ; preds = %23
  br label %18, !llvm.loop !11

29:                                               ; preds = %23
  %30 = load ptr, ptr %6, align 8
  %31 = getelementptr inbounds i8, ptr %30, i64 0
  %32 = load i8, ptr %31, align 1
  %33 = sext i8 %32 to i32
  %34 = icmp eq i32 %33, 35
  br i1 %34, label %35, label %36

35:                                               ; preds = %29
  br label %18, !llvm.loop !11

36:                                               ; preds = %29
  %37 = load ptr, ptr %6, align 8
  %38 = call i64 @strlen(ptr noundef %37) #9
  %39 = icmp ne i64 %38, 16
  br i1 %39, label %40, label %41

40:                                               ; preds = %36
  call void (i32, ptr, ...) @Abc_Print(i32 noundef 0, ptr noundef @.str.4)
  br label %18, !llvm.loop !11

41:                                               ; preds = %36
  %42 = getelementptr inbounds [2 x i32], ptr %8, i64 0, i64 0
  %43 = load ptr, ptr %6, align 8
  %44 = call i32 @Extra_ReadHexadecimal(ptr noundef %42, ptr noundef %43, i32 noundef 6)
  %45 = getelementptr inbounds [2 x i32], ptr %8, i64 0, i64 1
  %46 = load i32, ptr %45, align 4
  %47 = zext i32 %46 to i64
  %48 = shl i64 %47, 32
  %49 = getelementptr inbounds [2 x i32], ptr %8, i64 0, i64 0
  %50 = load i32, ptr %49, align 4
  %51 = zext i32 %50 to i64
  %52 = or i64 %48, %51
  store i64 %52, ptr %9, align 8
  %53 = load ptr, ptr %3, align 8
  %54 = load i64, ptr %9, align 8
  %55 = call ptr @Npn_ManAdd(ptr noundef %53, i64 noundef %54)
  store ptr %55, ptr %7, align 8
  %56 = call ptr @strtok(ptr noundef null, ptr noundef @.str.3) #8
  store ptr %56, ptr %6, align 8
  %57 = load ptr, ptr %6, align 8
  %58 = call i32 @atoi(ptr noundef %57) #9
  %59 = load ptr, ptr %7, align 8
  %60 = getelementptr inbounds %struct.Npn_Obj_t_, ptr %59, i32 0, i32 1
  store i32 %58, ptr %60, align 8
  br label %18, !llvm.loop !11

61:                                               ; preds = %18
  %62 = load ptr, ptr %10, align 8
  %63 = call i32 @fclose(ptr noundef %62)
  br label %64

64:                                               ; preds = %61, %15
  ret void
}