; Function Attrs: nounwind uwtable
define void @Npn_ManRead(ptr noundef captures(none) %0, ptr noundef %1) local_unnamed_addr #0 {
  %3 = alloca [1000 x i8], align 16
  %4 = alloca [2 x i32], align 8
  %5 = tail call noalias ptr @fopen(ptr noundef %1, ptr noundef nonnull @.str.1)
  %6 = icmp eq ptr %5, null
  br i1 %6, label %8, label %.preheader

.preheader:                                       ; preds = %2
  %7 = call ptr @fgets(ptr noundef nonnull %3, i32 noundef 1000, ptr noundef nonnull %5)
  %.not13 = icmp eq ptr %7, null
  br i1 %.not13, label %._crit_edge, label %.lr.ph

8:                                                ; preds = %2
  tail call void (i32, ptr, ...) @Abc_Print(i32 noundef -1, ptr noundef nonnull @.str.2, ptr noundef %1)
  br label %26

.lr.ph:                                           ; preds = %.preheader, %.backedge
  %9 = call ptr @strtok(ptr noundef nonnull %3, ptr noundef nonnull @.str.3) #22
  %10 = icmp eq ptr %9, null
  br i1 %10, label %.backedge, label %11

11:                                               ; preds = %.lr.ph
  %12 = load i8, ptr %9, align 1
  %13 = icmp eq i8 %12, 35
  br i1 %13, label %.backedge, label %14

14:                                               ; preds = %11
  %15 = call i64 @strlen(ptr noundef nonnull dereferenceable(1) %9) #20
  %.not12 = icmp eq i64 %15, 16
  br i1 %.not12, label %18, label %16

16:                                               ; preds = %14
  call void (i32, ptr, ...) @Abc_Print(i32 noundef 0, ptr noundef nonnull @.str.4)
  br label %.backedge

.backedge:                                        ; preds = %16, %18, %.lr.ph, %11
  %17 = call ptr @fgets(ptr noundef nonnull %3, i32 noundef 1000, ptr noundef nonnull %5)
  %.not = icmp eq ptr %17, null
  br i1 %.not, label %._crit_edge, label %.lr.ph, !llvm.loop !11

18:                                               ; preds = %14
  %19 = call i32 @Extra_ReadHexadecimal(ptr noundef nonnull %4, ptr noundef nonnull %9, i32 noundef 6) #22
  %20 = load i64, ptr %4, align 8
  %21 = call ptr @Npn_ManAdd(ptr noundef %0, i64 noundef %20)
  %22 = call ptr @strtok(ptr noundef null, ptr noundef nonnull @.str.3) #22
  %23 = call i32 @atoi(ptr noundef %22) #20
  %24 = getelementptr inbounds nuw i8, ptr %21, i64 8
  store i32 %23, ptr %24, align 8
  br label %.backedge

._crit_edge:                                      ; preds = %.backedge, %.preheader
  %25 = call i32 @fclose(ptr noundef nonnull %5)
  br label %26

26:                                               ; preds = %._crit_edge, %8
  ret void
}